; Function Attrs: mustprogress uwtable
define dso_local noundef zeroext i1 @_ZNK9CGContext14is_nonreadableEPK8Variable(ptr noundef nonnull readonly align 8 captures(none) dereferenceable(216) %0, ptr noundef %1) local_unnamed_addr #4 align 2 {
  %3 = getelementptr inbounds nuw i8, ptr %0, i64 56
  %4 = load ptr, ptr %3, align 8
  %.not = icmp eq ptr %4, null
  br i1 %.not, label %.loopexit, label %5

5:                                                ; preds = %2
  %6 = load ptr, ptr %4, align 8
  %7 = getelementptr inbounds nuw i8, ptr %6, i64 8
  %8 = load ptr, ptr %7, align 8
  %9 = load ptr, ptr %6, align 8
  %.not11 = icmp eq ptr %8, %9
  br i1 %.not11, label %.loopexit, label %.lr.ph.preheader

.lr.ph.preheader:                                 ; preds = %5
  %10 = ptrtoint ptr %8 to i64
  %11 = ptrtoint ptr %9 to i64
  %12 = sub i64 %10, %11
  %13 = ashr exact i64 %12, 3
  %umax = tail call i64 @llvm.umax.i64(i64 %13, i64 1)
  br label %.lr.ph

.lr.ph:                                           ; preds = %.lr.ph, %.lr.ph.preheader
  %.08 = phi i64 [ 0, %.lr.ph.preheader ], [ %20, %.lr.ph ]
  %14 = load ptr, ptr %3, align 8
  %15 = load ptr, ptr %14, align 8
  %16 = load ptr, ptr %15, align 8
  %17 = getelementptr inbounds ptr, ptr %16, i64 %.08
  %18 = load ptr, ptr %17, align 8
  %19 = tail call noundef zeroext i1 @_ZNK8Variable5matchEPKS_(ptr noundef nonnull align 8 dereferenceable(200) %18, ptr noundef %1)
  %20 = add nuw i64 %.08, 1
  %exitcond.not = icmp eq i64 %20, %umax
  %or.cond = select i1 %19, i1 true, i1 %exitcond.not
  br i1 %or.cond, label %.loopexit, label %.lr.ph, !llvm.loop !9

.loopexit:                                        ; preds = %.lr.ph, %5, %2
  %.06 = phi i1 [ false, %2 ], [ false, %5 ], [ %19, %.lr.ph ]
  ret i1 %.06
}